target datalayout = "e-m:e-p270:32:32-p271:32:32-p272:64:64-i64:64-i128:128-f80:128-n8:16:32:64-S128"
target triple = "x86_64-pc-linux-gnu"

%struct.JNINativeInterface_ = type { ptr, ptr, ptr, ptr, ptr, ptr, ptr, ptr, ptr, ptr, ptr, ptr, ptr, ptr, ptr, ptr, ptr, ptr, ptr, ptr, ptr, ptr, ptr, ptr, ptr, ptr, ptr, ptr, ptr, ptr, ptr, ptr, ptr, ptr, ptr, ptr, ptr, ptr, ptr, ptr, ptr, ptr, ptr, ptr, ptr, ptr, ptr, ptr, ptr, ptr, ptr, ptr, ptr, ptr, ptr, ptr, ptr, ptr, ptr, ptr, ptr, ptr, ptr, ptr, ptr, ptr, ptr, ptr, ptr, ptr, ptr, ptr, ptr, ptr, ptr, ptr, ptr, ptr, ptr, ptr, ptr, ptr, ptr, ptr, ptr, ptr, ptr, ptr, ptr, ptr, ptr, ptr, ptr, ptr, ptr, ptr, ptr, ptr, ptr, ptr, ptr, ptr, ptr, ptr, ptr, ptr, ptr, ptr, ptr, ptr, ptr, ptr, ptr, ptr, ptr, ptr, ptr, ptr, ptr, ptr, ptr, ptr, ptr, ptr, ptr, ptr, ptr, ptr, ptr, ptr, ptr, ptr, ptr, ptr, ptr, ptr, ptr, ptr, ptr, ptr, ptr, ptr, ptr, ptr, ptr, ptr, ptr, ptr, ptr, ptr, ptr, ptr, ptr, ptr, ptr, ptr, ptr, ptr, ptr, ptr, ptr, ptr, ptr, ptr, ptr, ptr, ptr, ptr, ptr, ptr, ptr, ptr, ptr, ptr, ptr, ptr, ptr, ptr, ptr, ptr, ptr, ptr, ptr, ptr, ptr, ptr, ptr, ptr, ptr, ptr, ptr, ptr, ptr, ptr, ptr, ptr, ptr, ptr, ptr, ptr, ptr, ptr, ptr, ptr, ptr, ptr, ptr, ptr, ptr, ptr, ptr, ptr, ptr, ptr, ptr, ptr, ptr, ptr, ptr, ptr, ptr, ptr, ptr, ptr, ptr, ptr, ptr, ptr, ptr, ptr, ptr, ptr, ptr, ptr, ptr }
%struct.sockaddr_in6 = type { i16, i16, i32, %struct.in6_addr, i32 }
%struct.in6_addr = type { %union.anon }
%union.anon = type { [4 x i32] }
%struct.sockaddr_in = type { i16, i16, %struct.in_addr, [8 x i8] }
%struct.in_addr = type { i32 }

@.str.2 = private unnamed_addr constant [25 x i8] c"java/net/SocketException\00", align 1
@ia6_scopeidID = external global ptr, align 8
@.str.11 = private unnamed_addr constant [28 x i8] c"Protocol family unavailable\00", align 1

; Function Attrs: nounwind uwtable
define i32 @NET_InetAddressToSockaddr(ptr noundef %0, ptr noundef %1, i32 noundef %2, ptr noundef %3, ptr noundef %4, i8 noundef zeroext %5) #0 {
  %7 = alloca i32, align 4
  %8 = alloca ptr, align 8
  %9 = alloca ptr, align 8
  %10 = alloca i32, align 4
  %11 = alloca ptr, align 8
  %12 = alloca ptr, align 8
  %13 = alloca i8, align 1
  %14 = alloca i32, align 4
  %15 = alloca [16 x i8], align 16
  %16 = alloca i32, align 4
  %17 = alloca i32, align 4
  store ptr %0, ptr %8, align 8
  store ptr %1, ptr %9, align 8
  store i32 %2, ptr %10, align 4
  store ptr %3, ptr %11, align 8
  store ptr %4, ptr %12, align 8
  store i8 %5, ptr %13, align 1
  %18 = load ptr, ptr %8, align 8
  %19 = load ptr, ptr %9, align 8
  %20 = call i32 @getInetAddress_family(ptr noundef %18, ptr noundef %19)
  store i32 %20, ptr %14, align 4
  br label %21

21:                                               ; preds = %6
  %22 = load ptr, ptr %8, align 8
  %23 = load ptr, ptr %22, align 8
  %24 = getelementptr inbounds %struct.JNINativeInterface_, ptr %23, i32 0, i32 228
  %25 = load ptr, ptr %24, align 8
  %26 = load ptr, ptr %8, align 8
  %27 = call zeroext i8 %25(ptr noundef %26)
  %28 = icmp ne i8 %27, 0
  br i1 %28, label %29, label %30

29:                                               ; preds = %21
  store i32 -1, ptr %7, align 4
  br label %163

30:                                               ; preds = %21
  br label %31

31:                                               ; preds = %30
  %32 = load ptr, ptr %11, align 8
  call void @llvm.memset.p0.i64(ptr align 1 %32, i8 0, i64 28, i1 false)
  %33 = call i32 (...) @ipv6_available()
  %34 = icmp ne i32 %33, 0
  br i1 %34, label %35, label %124

35:                                               ; preds = %31
  %36 = load i32, ptr %14, align 4
  %37 = sext i32 %36 to i64
  %38 = icmp eq i64 %37, 1
  br i1 %38, label %39, label %43

39:                                               ; preds = %35
  %40 = load i8, ptr %13, align 1
  %41 = zext i8 %40 to i32
  %42 = icmp eq i32 %41, 0
  br i1 %42, label %124, label %43

43:                                               ; preds = %39, %35
  %44 = load i32, ptr %14, align 4
  %45 = sext i32 %44 to i64
  %46 = icmp eq i64 %45, 1
  br i1 %46, label %47, label %89

47:                                               ; preds = %43
  %48 = getelementptr inbounds [16 x i8], ptr %15, i64 0, i64 0
  call void @llvm.memset.p0.i64(ptr align 16 %48, i8 0, i64 16, i1 false)
  %49 = load ptr, ptr %8, align 8
  %50 = load ptr, ptr %9, align 8
  %51 = call i32 @getInetAddress_addr(ptr noundef %49, ptr noundef %50)
  store i32 %51, ptr %16, align 4
  br label %52

52:                                               ; preds = %47
  %53 = load ptr, ptr %8, align 8
  %54 = load ptr, ptr %53, align 8
  %55 = getelementptr inbounds %struct.JNINativeInterface_, ptr %54, i32 0, i32 228
  %56 = load ptr, ptr %55, align 8
  %57 = load ptr, ptr %8, align 8
  %58 = call zeroext i8 %56(ptr noundef %57)
  %59 = icmp ne i8 %58, 0
  br i1 %59, label %60, label %61

60:                                               ; preds = %52
  store i32 -1, ptr %7, align 4
  br label %163

61:                                               ; preds = %52
  br label %62

62:                                               ; preds = %61
  %63 = load i32, ptr %16, align 4
  %64 = icmp eq i32 %63, 0
  br i1 %64, label %65, label %66

65:                                               ; preds = %62
  br label %88

66:                                               ; preds = %62
  %67 = getelementptr inbounds [16 x i8], ptr %15, i64 0, i64 10
  store i8 -1, ptr %67, align 2
  %68 = getelementptr inbounds [16 x i8], ptr %15, i64 0, i64 11
  store i8 -1, ptr %68, align 1
  %69 = load i32, ptr %16, align 4
  %70 = ashr i32 %69, 24
  %71 = and i32 %70, 255
  %72 = trunc i32 %71 to i8
  %73 = getelementptr inbounds [16 x i8], ptr %15, i64 0, i64 12
  store i8 %72, ptr %73, align 4
  %74 = load i32, ptr %16, align 4
  %75 = ashr i32 %74, 16
  %76 = and i32 %75, 255
  %77 = trunc i32 %76 to i8
  %78 = getelementptr inbounds [16 x i8], ptr %15, i64 0, i64 13
  store i8 %77, ptr %78, align 1
  %79 = load i32, ptr %16, align 4
  %80 = ashr i32 %79, 8
  %81 = and i32 %80, 255
  %82 = trunc i32 %81 to i8
  %83 = getelementptr inbounds [16 x i8], ptr %15, i64 0, i64 14
  store i8 %82, ptr %83, align 2
  %84 = load i32, ptr %16, align 4
  %85 = and i32 %84, 255
  %86 = trunc i32 %85 to i8
  %87 = getelementptr inbounds [16 x i8], ptr %15, i64 0, i64 15
  store i8 %86, ptr %87, align 1
  br label %88

88:                                               ; preds = %66, %65
  br label %94

89:                                               ; preds = %43
  %90 = load ptr, ptr %8, align 8
  %91 = load ptr, ptr %9, align 8
  %92 = getelementptr inbounds [16 x i8], ptr %15, i64 0, i64 0
  %93 = call zeroext i8 @getInet6Address_ipaddress(ptr noundef %90, ptr noundef %91, ptr noundef %92)
  br label %94

94:                                               ; preds = %89, %88
  %95 = load i32, ptr %10, align 4
  %96 = trunc i32 %95 to i16
  %97 = call zeroext i16 @htons(i16 noundef zeroext %96) #8
  %98 = load ptr, ptr %11, align 8
  %99 = getelementptr inbounds %struct.sockaddr_in6, ptr %98, i32 0, i32 1
  store i16 %97, ptr %99, align 2
  %100 = load ptr, ptr %11, align 8
  %101 = getelementptr inbounds %struct.sockaddr_in6, ptr %100, i32 0, i32 3
  %102 = getelementptr inbounds [16 x i8], ptr %15, i64 0, i64 0
  call void @llvm.memcpy.p0.p0.i64(ptr align 4 %101, ptr align 16 %102, i64 16, i1 false)
  %103 = load ptr, ptr %11, align 8
  %104 = getelementptr inbounds %struct.sockaddr_in6, ptr %103, i32 0, i32 0
  store i16 10, ptr %104, align 4
  %105 = load ptr, ptr %12, align 8
  %106 = icmp ne ptr %105, null
  br i1 %106, label %107, label %109

107:                                              ; preds = %94
  %108 = load ptr, ptr %12, align 8
  store i32 28, ptr %108, align 4
  br label %109

109:                                              ; preds = %107, %94
  %110 = load i32, ptr %14, align 4
  %111 = sext i32 %110 to i64
  %112 = icmp ne i64 %111, 1
  br i1 %112, label %113, label %123

113:                                              ; preds = %109
  %114 = load ptr, ptr @ia6_scopeidID, align 8
  %115 = icmp ne ptr %114, null
  br i1 %115, label %116, label %122

116:                                              ; preds = %113
  %117 = load ptr, ptr %8, align 8
  %118 = load ptr, ptr %9, align 8
  %119 = call i32 @getInet6Address_scopeid(ptr noundef %117, ptr noundef %118)
  %120 = load ptr, ptr %11, align 8
  %121 = getelementptr inbounds %struct.sockaddr_in6, ptr %120, i32 0, i32 4
  store i32 %119, ptr %121, align 4
  br label %122

122:                                              ; preds = %116, %113
  br label %123

123:                                              ; preds = %122, %109
  br label %162

124:                                              ; preds = %39, %31
  %125 = load i32, ptr %14, align 4
  %126 = sext i32 %125 to i64
  %127 = icmp ne i64 %126, 1
  br i1 %127, label %128, label %130

128:                                              ; preds = %124
  %129 = load ptr, ptr %8, align 8
  call void @JNU_ThrowByName(ptr noundef %129, ptr noundef @.str.2, ptr noundef @.str.11)
  store i32 -1, ptr %7, align 4
  br label %163

130:                                              ; preds = %124
  %131 = load ptr, ptr %8, align 8
  %132 = load ptr, ptr %9, align 8
  %133 = call i32 @getInetAddress_addr(ptr noundef %131, ptr noundef %132)
  store i32 %133, ptr %17, align 4
  br label %134

134:                                              ; preds = %130
  %135 = load ptr, ptr %8, align 8
  %136 = load ptr, ptr %135, align 8
  %137 = getelementptr inbounds %struct.JNINativeInterface_, ptr %136, i32 0, i32 228
  %138 = load ptr, ptr %137, align 8
  %139 = load ptr, ptr %8, align 8
  %140 = call zeroext i8 %138(ptr noundef %139)
  %141 = icmp ne i8 %140, 0
  br i1 %141, label %142, label %143

142:                                              ; preds = %134
  store i32 -1, ptr %7, align 4
  br label %163

143:                                              ; preds = %134
  br label %144

144:                                              ; preds = %143
  %145 = load i32, ptr %10, align 4
  %146 = trunc i32 %145 to i16
  %147 = call zeroext i16 @htons(i16 noundef zeroext %146) #8
  %148 = load ptr, ptr %11, align 8
  %149 = getelementptr inbounds %struct.sockaddr_in, ptr %148, i32 0, i32 1
  store i16 %147, ptr %149, align 2
  %150 = load i32, ptr %17, align 4
  %151 = call i32 @htonl(i32 noundef %150) #8
  %152 = load ptr, ptr %11, align 8
  %153 = getelementptr inbounds %struct.sockaddr_in, ptr %152, i32 0, i32 2
  %154 = getelementptr inbounds %struct.in_addr, ptr %153, i32 0, i32 0
  store i32 %151, ptr %154, align 4
  %155 = load ptr, ptr %11, align 8
  %156 = getelementptr inbounds %struct.sockaddr_in, ptr %155, i32 0, i32 0
  store i16 2, ptr %156, align 4
  %157 = load ptr, ptr %12, align 8
  %158 = icmp ne ptr %157, null
  br i1 %158, label %159, label %161

159:                                              ; preds = %144
  %160 = load ptr, ptr %12, align 8
  store i32 16, ptr %160, align 4
  br label %161

161:                                              ; preds = %159, %144
  br label %162

162:                                              ; preds = %161, %123
  store i32 0, ptr %7, align 4
  br label %163

163:                                              ; preds = %162, %142, %128, %60, %29
  %164 = load i32, ptr %7, align 4
  ret i32 %164
}