; Function Attrs: nounwind uwtable
define range(i32 -1, 1) i32 @NET_InetAddressToSockaddr(ptr noundef %0, ptr noundef %1, i32 noundef %2, ptr nocapture noundef writeonly %3, ptr noundef writeonly %4, i8 noundef zeroext %5) local_unnamed_addr #0 {
  %7 = alloca [16 x i8], align 16
  %8 = tail call i32 @getInetAddress_family(ptr noundef %0, ptr noundef %1) #13
  %9 = load ptr, ptr %0, align 8
  %10 = getelementptr inbounds i8, ptr %9, i64 1824
  %11 = load ptr, ptr %10, align 8
  %12 = tail call zeroext i8 %11(ptr noundef nonnull %0) #13
  %.not = icmp eq i8 %12, 0
  br i1 %.not, label %13, label %69

13:                                               ; preds = %6
  tail call void @llvm.memset.p0.i64(ptr noundef nonnull align 1 dereferenceable(28) %3, i8 0, i64 28, i1 false)
  %14 = tail call i32 (...) @ipv6_available() #13
  %.not48 = icmp eq i32 %14, 0
  %.not51 = icmp eq i32 %8, 1
  br i1 %.not48, label %55, label %15

15:                                               ; preds = %13
  %16 = icmp eq i8 %5, 0
  %or.cond = and i1 %16, %.not51
  br i1 %or.cond, label %.thread, label %17

17:                                               ; preds = %15
  br i1 %.not51, label %18, label %40

18:                                               ; preds = %17
  call void @llvm.memset.p0.i64(ptr noundef nonnull align 16 dereferenceable(16) %7, i8 0, i64 16, i1 false)
  %19 = tail call i32 @getInetAddress_addr(ptr noundef nonnull %0, ptr noundef %1) #13
  %20 = load ptr, ptr %0, align 8
  %21 = getelementptr inbounds i8, ptr %20, i64 1824
  %22 = load ptr, ptr %21, align 8
  %23 = tail call zeroext i8 %22(ptr noundef nonnull %0) #13
  %.not49 = icmp eq i8 %23, 0
  br i1 %.not49, label %24, label %69

24:                                               ; preds = %18
  %25 = icmp eq i32 %19, 0
  br i1 %25, label %42, label %26

26:                                               ; preds = %24
  %27 = getelementptr inbounds i8, ptr %7, i64 10
  store i8 -1, ptr %27, align 2
  %28 = getelementptr inbounds i8, ptr %7, i64 11
  store i8 -1, ptr %28, align 1
  %29 = lshr i32 %19, 24
  %30 = trunc nuw i32 %29 to i8
  %31 = getelementptr inbounds i8, ptr %7, i64 12
  store i8 %30, ptr %31, align 4
  %32 = lshr i32 %19, 16
  %33 = trunc i32 %32 to i8
  %34 = getelementptr inbounds i8, ptr %7, i64 13
  store i8 %33, ptr %34, align 1
  %35 = lshr i32 %19, 8
  %36 = trunc i32 %35 to i8
  %37 = getelementptr inbounds i8, ptr %7, i64 14
  store i8 %36, ptr %37, align 2
  %38 = trunc i32 %19 to i8
  %39 = getelementptr inbounds i8, ptr %7, i64 15
  store i8 %38, ptr %39, align 1
  br label %42

40:                                               ; preds = %17
  %41 = call zeroext i8 @getInet6Address_ipaddress(ptr noundef nonnull %0, ptr noundef %1, ptr noundef nonnull %7) #13
  br label %42

42:                                               ; preds = %26, %24, %40
  %43 = trunc i32 %2 to i16
  %44 = call zeroext i16 @htons(i16 noundef zeroext %43) #14
  %45 = getelementptr inbounds i8, ptr %3, i64 2
  store i16 %44, ptr %45, align 2
  %46 = getelementptr inbounds i8, ptr %3, i64 8
  call void @llvm.memcpy.p0.p0.i64(ptr noundef nonnull align 4 dereferenceable(16) %46, ptr noundef nonnull align 16 dereferenceable(16) %7, i64 16, i1 false)
  store i16 10, ptr %3, align 4
  %.not50 = icmp eq ptr %4, null
  br i1 %.not50, label %48, label %47

47:                                               ; preds = %42
  store i32 28, ptr %4, align 4
  br label %48

48:                                               ; preds = %47, %42
  %49 = icmp ne i32 %8, 1
  %50 = load ptr, ptr @ia6_scopeidID, align 8
  %51 = icmp ne ptr %50, null
  %or.cond4 = select i1 %49, i1 %51, i1 false
  br i1 %or.cond4, label %52, label %69

52:                                               ; preds = %48
  %53 = call i32 @getInet6Address_scopeid(ptr noundef nonnull %0, ptr noundef %1) #13
  %54 = getelementptr inbounds i8, ptr %3, i64 24
  store i32 %53, ptr %54, align 4
  br label %69

55:                                               ; preds = %13
  br i1 %.not51, label %.thread, label %56

56:                                               ; preds = %55
  tail call void @JNU_ThrowByName(ptr noundef nonnull %0, ptr noundef nonnull @.str.2, ptr noundef nonnull @.str.11) #13
  br label %69

.thread:                                          ; preds = %15, %55
  %57 = tail call i32 @getInetAddress_addr(ptr noundef nonnull %0, ptr noundef %1) #13
  %58 = load ptr, ptr %0, align 8
  %59 = getelementptr inbounds i8, ptr %58, i64 1824
  %60 = load ptr, ptr %59, align 8
  %61 = tail call zeroext i8 %60(ptr noundef nonnull %0) #13
  %.not52 = icmp eq i8 %61, 0
  br i1 %.not52, label %62, label %69

62:                                               ; preds = %.thread
  %63 = trunc i32 %2 to i16
  %64 = tail call zeroext i16 @htons(i16 noundef zeroext %63) #14
  %65 = getelementptr inbounds i8, ptr %3, i64 2
  store i16 %64, ptr %65, align 2
  %66 = tail call i32 @htonl(i32 noundef %57) #14
  %67 = getelementptr inbounds i8, ptr %3, i64 4
  store i32 %66, ptr %67, align 4
  store i16 2, ptr %3, align 4
  %.not53 = icmp eq ptr %4, null
  br i1 %.not53, label %69, label %68

68:                                               ; preds = %62
  store i32 16, ptr %4, align 4
  br label %69

69:                                               ; preds = %52, %48, %68, %62, %.thread, %18, %6, %56
  %.0 = phi i32 [ -1, %56 ], [ -1, %6 ], [ -1, %18 ], [ -1, %.thread ], [ 0, %62 ], [ 0, %68 ], [ 0, %48 ], [ 0, %52 ]
  ret i32 %.0
}